target datalayout = "e-m:e-p270:32:32-p271:32:32-p272:64:64-i64:64-i128:128-f80:128-n8:16:32:64-S128"
target triple = "x86_64-unknown-linux-gnu"

%"class.v8::IndirectHandleBase" = type { ptr }
%"class.v8::Local" = type { %"class.v8::LocalBase" }
%"class.v8::LocalBase" = type { %"class.v8::IndirectHandleBase" }
%"class.v8::Local.0" = type { %"class.v8::LocalBase.1" }
%"class.v8::LocalBase.1" = type { %"class.v8::IndirectHandleBase" }
%"class.node::MemoryRetainer" = type { ptr }
%"struct.std::_Rb_tree_header" = type { %"struct.std::_Rb_tree_node_base", i64 }
%"struct.std::_Rb_tree_node_base" = type { i32, ptr, ptr, ptr }
%"class.v8::Global.17" = type { %"class.v8::PersistentBase.18" }
%"class.v8::PersistentBase.18" = type { %"class.v8::IndirectHandleBase" }
%"class.node::(anonymous namespace)::Parser" = type { %"class.node::AsyncWrap", %"class.node::StreamListener", %struct.llhttp__internal_s, [32 x %"struct.node::(anonymous namespace)::StringPtr"], [32 x %"struct.node::(anonymous namespace)::StringPtr"], %"struct.node::(anonymous namespace)::StringPtr", %"struct.node::(anonymous namespace)::StringPtr", i64, i64, i8, i8, i64, ptr, i8, i8, i64, i64, i64, ptr, %"class.node::BaseObjectPtrImpl.328" }
%"class.node::AsyncWrap" = type { %"class.node::BaseObject", i32, i8, double, double }
%"class.node::BaseObject" = type { %"class.node::MemoryRetainer", %"class.v8::Global.17", ptr, ptr }
%"class.node::StreamListener" = type { ptr, ptr, ptr }
%struct.llhttp__internal_s = type { i32, ptr, ptr, i32, ptr, ptr, ptr, ptr, i64, i8, i8, i8, i8, i8, i16, i8, i8, i16, i16, i8, ptr }
%"struct.node::(anonymous namespace)::StringPtr" = type { ptr, i8, i64 }
%"class.node::BaseObjectPtrImpl.328" = type { %union.anon.329 }
%union.anon.329 = type { ptr }
%"class.node::(anonymous namespace)::ConnectionsList" = type { %"class.node::BaseObject", %"class.std::set.382", %"class.std::set.382" }
%"class.std::set.382" = type { %"class.std::_Rb_tree.383" }
%"class.std::_Rb_tree.383" = type { %"struct.std::_Rb_tree<node::(anonymous namespace)::Parser *, node::(anonymous namespace)::Parser *, std::_Identity<node::(anonymous namespace)::Parser *>, node::(anonymous namespace)::ParserComparator>::_Rb_tree_impl" }
%"struct.std::_Rb_tree<node::(anonymous namespace)::Parser *, node::(anonymous namespace)::Parser *, std::_Identity<node::(anonymous namespace)::Parser *>, node::(anonymous namespace)::ParserComparator>::_Rb_tree_impl" = type { %"struct.std::_Rb_tree_key_compare.387", %"struct.std::_Rb_tree_header" }
%"struct.std::_Rb_tree_key_compare.387" = type { %"struct.node::(anonymous namespace)::ParserComparator" }
%"struct.node::(anonymous namespace)::ParserComparator" = type { i8 }

; Function Attrs: mustprogress nounwind uwtable
define internal void @_ZN4node12_GLOBAL__N_115ConnectionsList9PopActiveEPNS0_6ParserE(ptr noundef nonnull align 8 dereferenceable(128) %this, ptr noundef %parser) #4 align 2 {
entry:
  %this.addr = alloca ptr, align 8
  %parser.addr = alloca ptr, align 8
  store ptr %this, ptr %this.addr, align 8
  store ptr %parser, ptr %parser.addr, align 8
  %this1 = load ptr, ptr %this.addr, align 8
  %active_connections_ = getelementptr inbounds %"class.node::(anonymous namespace)::ConnectionsList", ptr %this1, i32 0, i32 2
  %call = call noundef i64 @_ZNSt3setIPN4node12_GLOBAL__N_16ParserENS1_16ParserComparatorESaIS3_EE5eraseERKS3_(ptr noundef nonnull align 8 dereferenceable(48) %active_connections_, ptr noundef nonnull align 8 dereferenceable(8) %parser.addr)
  ret void
}

; Function Attrs: mustprogress nounwind uwtable
define internal void @_ZN4node12_GLOBAL__N_115ConnectionsList3PopEPNS0_6ParserE(ptr noundef nonnull align 8 dereferenceable(128) %this, ptr noundef %parser) #4 align 2 {
entry:
  %this.addr = alloca ptr, align 8
  %parser.addr = alloca ptr, align 8
  store ptr %this, ptr %this.addr, align 8
  store ptr %parser, ptr %parser.addr, align 8
  %this1 = load ptr, ptr %this.addr, align 8
  %all_connections_ = getelementptr inbounds %"class.node::(anonymous namespace)::ConnectionsList", ptr %this1, i32 0, i32 1
  %call = call noundef i64 @_ZNSt3setIPN4node12_GLOBAL__N_16ParserENS1_16ParserComparatorESaIS3_EE5eraseERKS3_(ptr noundef nonnull align 8 dereferenceable(48) %all_connections_, ptr noundef nonnull align 8 dereferenceable(8) %parser.addr)
  ret void
}

; Function Attrs: mustprogress nounwind uwtable
define linkonce_odr dso_local noundef ptr @_ZN4node10BaseObject12FromJSObjectEN2v85LocalINS1_5ValueEEE(ptr %value.coerce) #4 comdat align 2 {
entry:
  %heap_object_ptr.addr.i = alloca i64, align 8
  %offset.addr.i = alloca i32, align 4
  %addr.i = alloca i64, align 8
  %instance_type.addr.i = alloca i32, align 4
  %heap_object_ptr.addr.i2.i = alloca i64, align 8
  %offset.addr.i3.i = alloca i32, align 4
  %addr.i.i20 = alloca i64, align 8
  %heap_object_ptr.addr.i.i21 = alloca i64, align 8
  %offset.addr.i.i22 = alloca i32, align 4
  %obj.addr.i = alloca i64, align 8
  %map.i = alloca i64, align 8
  %this.addr.i18 = alloca ptr, align 8
  %other.addr.i = alloca ptr, align 8
  %this.addr.i.i15 = alloca ptr, align 8
  %other.addr.i.i = alloca ptr, align 8
  %retval.i16 = alloca %"class.v8::Local", align 8
  %that.i = alloca %"class.v8::Local.0", align 8
  %ref.tmp.i = alloca %"class.v8::LocalBase", align 8
  %value.addr.i.i = alloca ptr, align 8
  %heap_object_ptr.addr.i8.i = alloca i64, align 8
  %offset.addr.i9.i = alloca i32, align 4
  %addr.i.i = alloca i64, align 8
  %isolate.addr.i.i = alloca ptr, align 8
  %heap_object_ptr.addr.i.i = alloca i64, align 8
  %offset.addr.i.i = alloca i32, align 4
  %obj.addr.i.i = alloca i64, align 8
  %retval.i12 = alloca ptr, align 8
  %this.addr.i13 = alloca ptr, align 8
  %index.addr.i = alloca i32, align 4
  %obj.i = alloca i64, align 8
  %instance_type.i = alloca i32, align 4
  %offset.i = alloca i32, align 4
  %isolate.i = alloca ptr, align 8
  %value.i = alloca i64, align 8
  %retval.i = alloca %"class.v8::Local", align 8
  %this.addr.i10 = alloca ptr, align 8
  %agg.tmp.i = alloca %"class.v8::Local.0", align 8
  %slot.addr.i = alloca ptr, align 8
  %this.addr.i.i = alloca ptr, align 8
  %this.addr.i8 = alloca ptr, align 8
  %this.addr.i = alloca ptr, align 8
  %value = alloca %"class.v8::Local.0", align 8
  %obj = alloca %"class.v8::Local", align 8
  %coerce.dive = getelementptr inbounds %"class.v8::Local.0", ptr %value, i32 0, i32 0
  %coerce.dive1 = getelementptr inbounds %"class.v8::LocalBase.1", ptr %coerce.dive, i32 0, i32 0
  %coerce.dive2 = getelementptr inbounds %"class.v8::IndirectHandleBase", ptr %coerce.dive1, i32 0, i32 0
  store ptr %value.coerce, ptr %coerce.dive2, align 8
  store ptr %value, ptr %this.addr.i10, align 8
  %this1.i11 = load ptr, ptr %this.addr.i10, align 8
  call void @llvm.memcpy.p0.p0.i64(ptr align 8 %agg.tmp.i, ptr align 8 %this1.i11, i64 8, i1 false)
  %0 = load ptr, ptr %agg.tmp.i, align 8
  store ptr %0, ptr %that.i, align 8
  store ptr %ref.tmp.i, ptr %this.addr.i18, align 8
  store ptr %that.i, ptr %other.addr.i, align 8
  %this1.i19 = load ptr, ptr %this.addr.i18, align 8
  %1 = load ptr, ptr %other.addr.i, align 8
  call void @llvm.memcpy.p0.p0.i64(ptr align 8 %this1.i19, ptr align 8 %1, i64 8, i1 false)
  store ptr %retval.i16, ptr %this.addr.i.i15, align 8
  store ptr %ref.tmp.i, ptr %other.addr.i.i, align 8
  %this1.i.i17 = load ptr, ptr %this.addr.i.i15, align 8
  %2 = load ptr, ptr %other.addr.i.i, align 8
  call void @llvm.memcpy.p0.p0.i64(ptr align 8 %this1.i.i17, ptr align 8 %2, i64 8, i1 false)
  %3 = load ptr, ptr %retval.i16, align 8
  store ptr %3, ptr %retval.i, align 8
  %4 = load ptr, ptr %retval.i, align 8
  %coerce.dive3 = getelementptr inbounds %"class.v8::Local", ptr %obj, i32 0, i32 0
  %coerce.dive4 = getelementptr inbounds %"class.v8::LocalBase", ptr %coerce.dive3, i32 0, i32 0
  %coerce.dive5 = getelementptr inbounds %"class.v8::IndirectHandleBase", ptr %coerce.dive4, i32 0, i32 0
  store ptr %4, ptr %coerce.dive5, align 8
  store ptr %obj, ptr %this.addr.i, align 8
  %this1.i = load ptr, ptr %this.addr.i, align 8
  store ptr %this1.i, ptr %this.addr.i8, align 8
  %this1.i9 = load ptr, ptr %this.addr.i8, align 8
  store ptr %this1.i9, ptr %this.addr.i.i, align 8
  %this1.i.i = load ptr, ptr %this.addr.i.i, align 8
  %5 = load ptr, ptr %this1.i.i, align 8
  store ptr %5, ptr %slot.addr.i, align 8
  %6 = load ptr, ptr %slot.addr.i, align 8
  store ptr %6, ptr %this.addr.i13, align 8
  store i32 1, ptr %index.addr.i, align 4
  %this1.i14 = load ptr, ptr %this.addr.i13, align 8
  store ptr %this1.i14, ptr %value.addr.i.i, align 8
  %7 = load ptr, ptr %value.addr.i.i, align 8
  %8 = load i64, ptr %7, align 8
  store i64 %8, ptr %obj.i, align 8
  %9 = load i64, ptr %obj.i, align 8
  store i64 %9, ptr %obj.addr.i, align 8
  %10 = load i64, ptr %obj.addr.i, align 8
  store i64 %10, ptr %heap_object_ptr.addr.i.i21, align 8
  store i32 0, ptr %offset.addr.i.i22, align 4
  %11 = load i64, ptr %heap_object_ptr.addr.i.i21, align 8
  %12 = load i32, ptr %offset.addr.i.i22, align 4
  store i64 %11, ptr %heap_object_ptr.addr.i2.i, align 8
  store i32 %12, ptr %offset.addr.i3.i, align 4
  %13 = load i64, ptr %heap_object_ptr.addr.i2.i, align 8
  %14 = load i32, ptr %offset.addr.i3.i, align 4
  %conv.i.i23 = sext i32 %14 to i64
  %add.i.i24 = add i64 %13, %conv.i.i23
  %sub.i.i25 = sub i64 %add.i.i24, 1
  store i64 %sub.i.i25, ptr %addr.i.i20, align 8
  %15 = load i64, ptr %addr.i.i20, align 8
  %16 = inttoptr i64 %15 to ptr
  %17 = load i64, ptr %16, align 8
  store i64 %17, ptr %map.i, align 8
  %18 = load i64, ptr %map.i, align 8
  store i64 %18, ptr %heap_object_ptr.addr.i, align 8
  store i32 12, ptr %offset.addr.i, align 4
  %19 = load i64, ptr %heap_object_ptr.addr.i, align 8
  %20 = load i32, ptr %offset.addr.i, align 4
  %conv.i26 = sext i32 %20 to i64
  %add.i27 = add i64 %19, %conv.i26
  %sub.i28 = sub i64 %add.i27, 1
  store i64 %sub.i28, ptr %addr.i, align 8
  %21 = load i64, ptr %addr.i, align 8
  %22 = inttoptr i64 %21 to ptr
  %23 = load i16, ptr %22, align 2
  %conv.i = zext i16 %23 to i32
  store i32 %conv.i, ptr %instance_type.i, align 4
  %24 = load i32, ptr %instance_type.i, align 4
  store i32 %24, ptr %instance_type.addr.i, align 4
  %25 = load i32, ptr %instance_type.addr.i, align 4
  %cmp.i = icmp eq i32 %25, 1040
  br i1 %cmp.i, label %_ZN2v88internal9Internals20CanHaveInternalFieldEi.exit, label %lor.rhs.i

lor.rhs.i:                                        ; preds = %entry
  %26 = load i32, ptr %instance_type.addr.i, align 4
  %sub.i = sub i32 %26, 1057
  %cmp1.i = icmp ule i32 %sub.i, 1001
  br label %_ZN2v88internal9Internals20CanHaveInternalFieldEi.exit

_ZN2v88internal9Internals20CanHaveInternalFieldEi.exit: ; preds = %lor.rhs.i, %entry
  %27 = phi i1 [ true, %entry ], [ %cmp1.i, %lor.rhs.i ]
  br i1 %27, label %if.then.i, label %if.end.i

if.then.i:                                        ; preds = %_ZN2v88internal9Internals20CanHaveInternalFieldEi.exit
  %28 = load i32, ptr %index.addr.i, align 4
  %mul.i = mul nsw i32 8, %28
  %add.i = add nsw i32 24, %mul.i
  store i32 %add.i, ptr %offset.i, align 4
  %29 = load i64, ptr %obj.i, align 8
  store i64 %29, ptr %obj.addr.i.i, align 8
  store ptr null, ptr %isolate.i, align 8
  %30 = load ptr, ptr %isolate.i, align 8
  %31 = load i64, ptr %obj.i, align 8
  %32 = load i32, ptr %offset.i, align 4
  store ptr %30, ptr %isolate.addr.i.i, align 8
  store i64 %31, ptr %heap_object_ptr.addr.i.i, align 8
  store i32 %32, ptr %offset.addr.i.i, align 4
  %33 = load i64, ptr %heap_object_ptr.addr.i.i, align 8
  %34 = load i32, ptr %offset.addr.i.i, align 4
  store i64 %33, ptr %heap_object_ptr.addr.i8.i, align 8
  store i32 %34, ptr %offset.addr.i9.i, align 4
  %35 = load i64, ptr %heap_object_ptr.addr.i8.i, align 8
  %36 = load i32, ptr %offset.addr.i9.i, align 4
  %conv.i.i = sext i32 %36 to i64
  %add.i.i = add i64 %35, %conv.i.i
  %sub.i.i = sub i64 %add.i.i, 1
  store i64 %sub.i.i, ptr %addr.i.i, align 8
  %37 = load i64, ptr %addr.i.i, align 8
  %38 = inttoptr i64 %37 to ptr
  %39 = load i64, ptr %38, align 8
  store i64 %39, ptr %value.i, align 8
  %40 = load i64, ptr %value.i, align 8
  %41 = inttoptr i64 %40 to ptr
  store ptr %41, ptr %retval.i12, align 8
  br label %_ZN2v86Object34GetAlignedPointerFromInternalFieldEi.exit

if.end.i:                                         ; preds = %_ZN2v88internal9Internals20CanHaveInternalFieldEi.exit
  %42 = load i32, ptr %index.addr.i, align 4
  %call7.i = call noundef ptr @_ZN2v86Object38SlowGetAlignedPointerFromInternalFieldEi(ptr noundef nonnull align 1 dereferenceable(1) %this1.i14, i32 noundef %42) #3
  store ptr %call7.i, ptr %retval.i12, align 8
  br label %_ZN2v86Object34GetAlignedPointerFromInternalFieldEi.exit

_ZN2v86Object34GetAlignedPointerFromInternalFieldEi.exit: ; preds = %if.end.i, %if.then.i
  %43 = load ptr, ptr %retval.i12, align 8
  ret ptr %43
}

; Function Attrs: mustprogress nounwind uwtable
define internal void @_ZN4node12_GLOBAL__N_16Parser6RemoveERKN2v820FunctionCallbackInfoINS2_5ValueEEE(ptr noundef nonnull align 8 dereferenceable(20) %args) #4 align 2 {
entry:
  %this.addr.i17 = alloca ptr, align 8
  %other.addr.i = alloca ptr, align 8
  %that.i = alloca %"class.v8::Local", align 8
  %this.addr.i16 = alloca ptr, align 8
  %this.addr.i11.i = alloca ptr, align 8
  %location.addr.i12.i = alloca ptr, align 8
  %this.addr.i9.i = alloca ptr, align 8
  %location.addr.i.i = alloca ptr, align 8
  %this.addr.i.i = alloca ptr, align 8
  %other.addr.i.i = alloca ptr, align 8
  %retval.i7.i = alloca %"class.v8::LocalBase", align 8
  %slot.addr.i8.i = alloca ptr, align 8
  %retval.i.i = alloca %"class.v8::Local", align 8
  %slot.addr.i.i = alloca ptr, align 8
  %ref.tmp.i.i = alloca %"class.v8::LocalBase", align 8
  %retval.i = alloca %"class.v8::Local", align 8
  %this.addr.i = alloca ptr, align 8
  %args.addr = alloca ptr, align 8
  %parser = alloca ptr, align 8
  %agg.tmp = alloca %"class.v8::Local.0", align 8
  %agg.tmp1 = alloca %"class.v8::Local", align 8
  store ptr %args, ptr %args.addr, align 8
  br label %do.body

do.body:                                          ; preds = %entry
  %0 = load ptr, ptr %args.addr, align 8
  store ptr %0, ptr %this.addr.i, align 8
  %this1.i = load ptr, ptr %this.addr.i, align 8
  %1 = load ptr, ptr %this1.i, align 8
  store ptr %1, ptr %slot.addr.i.i, align 8
  %2 = load ptr, ptr %slot.addr.i.i, align 8
  store ptr %2, ptr %slot.addr.i8.i, align 8
  %3 = load ptr, ptr %slot.addr.i8.i, align 8
  store ptr %retval.i7.i, ptr %this.addr.i9.i, align 8
  store ptr %3, ptr %location.addr.i.i, align 8
  %this1.i10.i = load ptr, ptr %this.addr.i9.i, align 8
  %4 = load ptr, ptr %location.addr.i.i, align 8
  store ptr %this1.i10.i, ptr %this.addr.i11.i, align 8
  store ptr %4, ptr %location.addr.i12.i, align 8
  %this1.i13.i = load ptr, ptr %this.addr.i11.i, align 8
  %5 = load ptr, ptr %location.addr.i12.i, align 8
  store ptr %5, ptr %this1.i13.i, align 8
  %6 = load ptr, ptr %retval.i7.i, align 8
  store ptr %6, ptr %ref.tmp.i.i, align 8
  store ptr %retval.i.i, ptr %this.addr.i.i, align 8
  store ptr %ref.tmp.i.i, ptr %other.addr.i.i, align 8
  %this1.i.i = load ptr, ptr %this.addr.i.i, align 8
  %7 = load ptr, ptr %other.addr.i.i, align 8
  call void @llvm.memcpy.p0.p0.i64(ptr align 8 %this1.i.i, ptr align 8 %7, i64 8, i1 false)
  %8 = load ptr, ptr %retval.i.i, align 8
  store ptr %8, ptr %retval.i, align 8
  %9 = load ptr, ptr %retval.i, align 8
  %coerce.dive = getelementptr inbounds %"class.v8::Local", ptr %agg.tmp1, i32 0, i32 0
  %coerce.dive2 = getelementptr inbounds %"class.v8::LocalBase", ptr %coerce.dive, i32 0, i32 0
  %coerce.dive3 = getelementptr inbounds %"class.v8::IndirectHandleBase", ptr %coerce.dive2, i32 0, i32 0
  store ptr %9, ptr %coerce.dive3, align 8
  %coerce.dive4 = getelementptr inbounds %"class.v8::Local", ptr %agg.tmp1, i32 0, i32 0
  %coerce.dive5 = getelementptr inbounds %"class.v8::LocalBase", ptr %coerce.dive4, i32 0, i32 0
  %coerce.dive6 = getelementptr inbounds %"class.v8::IndirectHandleBase", ptr %coerce.dive5, i32 0, i32 0
  %10 = load ptr, ptr %coerce.dive6, align 8
  store ptr %10, ptr %that.i, align 8
  store ptr %agg.tmp, ptr %this.addr.i16, align 8
  %this3.i = load ptr, ptr %this.addr.i16, align 8
  store ptr %this3.i, ptr %this.addr.i17, align 8
  store ptr %that.i, ptr %other.addr.i, align 8
  %this1.i18 = load ptr, ptr %this.addr.i17, align 8
  %11 = load ptr, ptr %other.addr.i, align 8
  call void @llvm.memcpy.p0.p0.i64(ptr align 8 %this1.i18, ptr align 8 %11, i64 8, i1 false)
  %coerce.dive7 = getelementptr inbounds %"class.v8::Local.0", ptr %agg.tmp, i32 0, i32 0
  %coerce.dive8 = getelementptr inbounds %"class.v8::LocalBase.1", ptr %coerce.dive7, i32 0, i32 0
  %coerce.dive9 = getelementptr inbounds %"class.v8::IndirectHandleBase", ptr %coerce.dive8, i32 0, i32 0
  %12 = load ptr, ptr %coerce.dive9, align 8
  %call10 = call noundef ptr @_ZN4node10BaseObject12FromJSObjectEN2v85LocalINS1_5ValueEEE(ptr %12)
  store ptr %call10, ptr %parser, align 8
  %13 = load ptr, ptr %parser, align 8
  %cmp = icmp eq ptr %13, null
  br i1 %cmp, label %if.then, label %if.end

if.then:                                          ; preds = %do.body
  br label %if.end15

if.end:                                           ; preds = %do.body
  br label %do.end

do.end:                                           ; preds = %if.end
  %14 = load ptr, ptr %parser, align 8
  %connectionsList_ = getelementptr inbounds %"class.node::(anonymous namespace)::Parser", ptr %14, i32 0, i32 18
  %15 = load ptr, ptr %connectionsList_, align 8
  %cmp11 = icmp ne ptr %15, null
  br i1 %cmp11, label %if.then12, label %if.end15

if.then12:                                        ; preds = %do.end
  %16 = load ptr, ptr %parser, align 8
  %connectionsList_13 = getelementptr inbounds %"class.node::(anonymous namespace)::Parser", ptr %16, i32 0, i32 18
  %17 = load ptr, ptr %connectionsList_13, align 8
  %18 = load ptr, ptr %parser, align 8
  call void @_ZN4node12_GLOBAL__N_115ConnectionsList3PopEPNS0_6ParserE(ptr noundef nonnull align 8 dereferenceable(128) %17, ptr noundef %18)
  %19 = load ptr, ptr %parser, align 8
  %connectionsList_14 = getelementptr inbounds %"class.node::(anonymous namespace)::Parser", ptr %19, i32 0, i32 18
  %20 = load ptr, ptr %connectionsList_14, align 8
  %21 = load ptr, ptr %parser, align 8
  call void @_ZN4node12_GLOBAL__N_115ConnectionsList9PopActiveEPNS0_6ParserE(ptr noundef nonnull align 8 dereferenceable(128) %20, ptr noundef %21)
  br label %if.end15

if.end15:                                         ; preds = %if.then12, %do.end, %if.then
  ret void
}